; ModuleID = '57/2125.c'
source_filename = "57/2125.c"
target datalayout = "e-m:e-p270:32:32-p271:32:32-p272:64:64-i64:64-f80:128-n8:16:32:64-S128"
target triple = "x86_64-pc-linux-gnu"

@.str = private unnamed_addr constant [3 x i8] c"%d\00", align 1

; Function Attrs: noinline nounwind uwtable
define dso_local i32 @main() #0 {
  %1 = alloca i32, align 4
  %2 = alloca i32, align 4
  %3 = alloca i32, align 4
  %4 = alloca i32, align 4
  %5 = alloca [50 x [32 x i8]], align 16
  store i32 0, i32* %1, align 4
  %6 = call i32 (i8*, ...) @__isoc99_scanf(i8* getelementptr inbounds ([3 x i8], [3 x i8]* @.str, i64 0, i64 0), i32* %2)
  store i32 0, i32* %3, align 4
  br label %7

7:                                                ; preds = %17, %0
  %8 = load i32, i32* %3, align 4
  %9 = load i32, i32* %2, align 4
  %10 = icmp sle i32 %8, %9
  br i1 %10, label %11, label %20

11:                                               ; preds = %7
  %12 = load i32, i32* %3, align 4
  %13 = sext i32 %12 to i64
  %14 = getelementptr inbounds [50 x [32 x i8]], [50 x [32 x i8]]* %5, i64 0, i64 %13
  %15 = getelementptr inbounds [32 x i8], [32 x i8]* %14, i64 0, i64 0
  %16 = call i32 (i8*, ...) bitcast (i32 (...)* @gets to i32 (i8*, ...)*)(i8* %15)
  br label %17

17:                                               ; preds = %11
  %18 = load i32, i32* %3, align 4
  %19 = add nsw i32 %18, 1
  store i32 %19, i32* %3, align 4
  br label %7

20:                                               ; preds = %7
  store i32 0, i32* %3, align 4
  br label %21

21:                                               ; preds = %169, %20
  %22 = load i32, i32* %3, align 4
  %23 = load i32, i32* %2, align 4
  %24 = icmp sle i32 %22, %23
  br i1 %24, label %25, label %172

25:                                               ; preds = %21
  store i32 0, i32* %4, align 4
  br label %26

26:                                               ; preds = %165, %25
  %27 = load i32, i32* %3, align 4
  %28 = sext i32 %27 to i64
  %29 = getelementptr inbounds [50 x [32 x i8]], [50 x [32 x i8]]* %5, i64 0, i64 %28
  %30 = load i32, i32* %4, align 4
  %31 = sext i32 %30 to i64
  %32 = getelementptr inbounds [32 x i8], [32 x i8]* %29, i64 0, i64 %31
  %33 = load i8, i8* %32, align 1
  %34 = sext i8 %33 to i32
  %35 = icmp ne i32 %34, 0
  br i1 %35, label %36, label %168

36:                                               ; preds = %26
  %37 = load i32, i32* %3, align 4
  %38 = sext i32 %37 to i64
  %39 = getelementptr inbounds [50 x [32 x i8]], [50 x [32 x i8]]* %5, i64 0, i64 %38
  %40 = load i32, i32* %4, align 4
  %41 = sext i32 %40 to i64
  %42 = getelementptr inbounds [32 x i8], [32 x i8]* %39, i64 0, i64 %41
  %43 = load i8, i8* %42, align 1
  %44 = sext i8 %43 to i32
  %45 = icmp eq i32 %44, 101
  br i1 %45, label %46, label %75

46:                                               ; preds = %36
  %47 = load i32, i32* %3, align 4
  %48 = sext i32 %47 to i64
  %49 = getelementptr inbounds [50 x [32 x i8]], [50 x [32 x i8]]* %5, i64 0, i64 %48
  %50 = load i32, i32* %4, align 4
  %51 = add nsw i32 %50, 1
  %52 = sext i32 %51 to i64
  %53 = getelementptr inbounds [32 x i8], [32 x i8]* %49, i64 0, i64 %52
  %54 = load i8, i8* %53, align 1
  %55 = sext i8 %54 to i32
  %56 = icmp eq i32 %55, 114
  br i1 %56, label %57, label %75

57:                                               ; preds = %46
  %58 = load i32, i32* %3, align 4
  %59 = sext i32 %58 to i64
  %60 = getelementptr inbounds [50 x [32 x i8]], [50 x [32 x i8]]* %5, i64 0, i64 %59
  %61 = load i32, i32* %4, align 4
  %62 = add nsw i32 %61, 2
  %63 = sext i32 %62 to i64
  %64 = getelementptr inbounds [32 x i8], [32 x i8]* %60, i64 0, i64 %63
  %65 = load i8, i8* %64, align 1
  %66 = sext i8 %65 to i32
  %67 = icmp eq i32 %66, 0
  br i1 %67, label %68, label %75

68:                                               ; preds = %57
  %69 = load i32, i32* %3, align 4
  %70 = sext i32 %69 to i64
  %71 = getelementptr inbounds [50 x [32 x i8]], [50 x [32 x i8]]* %5, i64 0, i64 %70
  %72 = load i32, i32* %4, align 4
  %73 = sext i32 %72 to i64
  %74 = getelementptr inbounds [32 x i8], [32 x i8]* %71, i64 0, i64 %73
  store i8 0, i8* %74, align 1
  br label %168

75:                                               ; preds = %57, %46, %36
  %76 = load i32, i32* %3, align 4
  %77 = sext i32 %76 to i64
  %78 = getelementptr inbounds [50 x [32 x i8]], [50 x [32 x i8]]* %5, i64 0, i64 %77
  %79 = load i32, i32* %4, align 4
  %80 = sext i32 %79 to i64
  %81 = getelementptr inbounds [32 x i8], [32 x i8]* %78, i64 0, i64 %80
  %82 = load i8, i8* %81, align 1
  %83 = sext i8 %82 to i32
  %84 = icmp eq i32 %83, 105
  br i1 %84, label %85, label %125

85:                                               ; preds = %75
  %86 = load i32, i32* %3, align 4
  %87 = sext i32 %86 to i64
  %88 = getelementptr inbounds [50 x [32 x i8]], [50 x [32 x i8]]* %5, i64 0, i64 %87
  %89 = load i32, i32* %4, align 4
  %90 = add nsw i32 %89, 1
  %91 = sext i32 %90 to i64
  %92 = getelementptr inbounds [32 x i8], [32 x i8]* %88, i64 0, i64 %91
  %93 = load i8, i8* %92, align 1
  %94 = sext i8 %93 to i32
  %95 = icmp eq i32 %94, 110
  br i1 %95, label %96, label %125

96:                                               ; preds = %85
  %97 = load i32, i32* %3, align 4
  %98 = sext i32 %97 to i64
  %99 = getelementptr inbounds [50 x [32 x i8]], [50 x [32 x i8]]* %5, i64 0, i64 %98
  %100 = load i32, i32* %4, align 4
  %101 = add nsw i32 %100, 2
  %102 = sext i32 %101 to i64
  %103 = getelementptr inbounds [32 x i8], [32 x i8]* %99, i64 0, i64 %102
  %104 = load i8, i8* %103, align 1
  %105 = sext i8 %104 to i32
  %106 = icmp eq i32 %105, 103
  br i1 %106, label %107, label %125

107:                                              ; preds = %96
  %108 = load i32, i32* %3, align 4
  %109 = sext i32 %108 to i64
  %110 = getelementptr inbounds [50 x [32 x i8]], [50 x [32 x i8]]* %5, i64 0, i64 %109
  %111 = load i32, i32* %4, align 4
  %112 = add nsw i32 %111, 3
  %113 = sext i32 %112 to i64
  %114 = getelementptr inbounds [32 x i8], [32 x i8]* %110, i64 0, i64 %113
  %115 = load i8, i8* %114, align 1
  %116 = sext i8 %115 to i32
  %117 = icmp eq i32 %116, 0
  br i1 %117, label %118, label %125

118:                                              ; preds = %107
  %119 = load i32, i32* %3, align 4
  %120 = sext i32 %119 to i64
  %121 = getelementptr inbounds [50 x [32 x i8]], [50 x [32 x i8]]* %5, i64 0, i64 %120
  %122 = load i32, i32* %4, align 4
  %123 = sext i32 %122 to i64
  %124 = getelementptr inbounds [32 x i8], [32 x i8]* %121, i64 0, i64 %123
  store i8 0, i8* %124, align 1
  br label %168

125:                                              ; preds = %107, %96, %85, %75
  %126 = load i32, i32* %3, align 4
  %127 = sext i32 %126 to i64
  %128 = getelementptr inbounds [50 x [32 x i8]], [50 x [32 x i8]]* %5, i64 0, i64 %127
  %129 = load i32, i32* %4, align 4
  %130 = sext i32 %129 to i64
  %131 = getelementptr inbounds [32 x i8], [32 x i8]* %128, i64 0, i64 %130
  %132 = load i8, i8* %131, align 1
  %133 = sext i8 %132 to i32
  %134 = icmp eq i32 %133, 108
  br i1 %134, label %135, label %164

135:                                              ; preds = %125
  %136 = load i32, i32* %3, align 4
  %137 = sext i32 %136 to i64
  %138 = getelementptr inbounds [50 x [32 x i8]], [50 x [32 x i8]]* %5, i64 0, i64 %137
  %139 = load i32, i32* %4, align 4
  %140 = add nsw i32 %139, 1
  %141 = sext i32 %140 to i64
  %142 = getelementptr inbounds [32 x i8], [32 x i8]* %138, i64 0, i64 %141
  %143 = load i8, i8* %142, align 1
  %144 = sext i8 %143 to i32
  %145 = icmp eq i32 %144, 121
  br i1 %145, label %146, label %164

146:                                              ; preds = %135
  %147 = load i32, i32* %3, align 4
  %148 = sext i32 %147 to i64
  %149 = getelementptr inbounds [50 x [32 x i8]], [50 x [32 x i8]]* %5, i64 0, i64 %148
  %150 = load i32, i32* %4, align 4
  %151 = add nsw i32 %150, 2
  %152 = sext i32 %151 to i64
  %153 = getelementptr inbounds [32 x i8], [32 x i8]* %149, i64 0, i64 %152
  %154 = load i8, i8* %153, align 1
  %155 = sext i8 %154 to i32
  %156 = icmp eq i32 %155, 0
  br i1 %156, label %157, label %164

157:                                              ; preds = %146
  %158 = load i32, i32* %3, align 4
  %159 = sext i32 %158 to i64
  %160 = getelementptr inbounds [50 x [32 x i8]], [50 x [32 x i8]]* %5, i64 0, i64 %159
  %161 = load i32, i32* %4, align 4
  %162 = sext i32 %161 to i64
  %163 = getelementptr inbounds [32 x i8], [32 x i8]* %160, i64 0, i64 %162
  store i8 0, i8* %163, align 1
  br label %168

164:                                              ; preds = %146, %135, %125
  br label %165

165:                                              ; preds = %164
  %166 = load i32, i32* %4, align 4
  %167 = add nsw i32 %166, 1
  store i32 %167, i32* %4, align 4
  br label %26

168:                                              ; preds = %157, %118, %68, %26
  br label %169

169:                                              ; preds = %168
  %170 = load i32, i32* %3, align 4
  %171 = add nsw i32 %170, 1
  store i32 %171, i32* %3, align 4
  br label %21

172:                                              ; preds = %21
  store i32 0, i32* %3, align 4
  br label %173

173:                                              ; preds = %183, %172
  %174 = load i32, i32* %3, align 4
  %175 = load i32, i32* %2, align 4
  %176 = icmp sle i32 %174, %175
  br i1 %176, label %177, label %186

177:                                              ; preds = %173
  %178 = load i32, i32* %3, align 4
  %179 = sext i32 %178 to i64
  %180 = getelementptr inbounds [50 x [32 x i8]], [50 x [32 x i8]]* %5, i64 0, i64 %179
  %181 = getelementptr inbounds [32 x i8], [32 x i8]* %180, i64 0, i64 0
  %182 = call i32 @puts(i8* %181)
  br label %183

183:                                              ; preds = %177
  %184 = load i32, i32* %3, align 4
  %185 = add nsw i32 %184, 1
  store i32 %185, i32* %3, align 4
  br label %173

186:                                              ; preds = %173
  %187 = load i32, i32* %1, align 4
  ret i32 %187
}

declare dso_local i32 @__isoc99_scanf(i8*, ...) #1

declare dso_local i32 @gets(...) #1

declare dso_local i32 @puts(i8*) #1


!llvm.module.flags = !{!0}
!llvm.ident = !{!1}

!0 = !{i32 1, !"wchar_size", i32 4}
!1 = !{!"clang version 10.0.0-4ubuntu1 "}
